target datalayout = "e-m:e-p270:32:32-p271:32:32-p272:64:64-i64:64-i128:128-f80:128-n8:16:32:64-S128"
target triple = "x86_64-pc-linux-gnu"

%struct.e_in6_addr = type { [16 x i8] }
%struct._asn1_ctx_t = type { i32, i32, i8, ptr, ptr, ptr, ptr, ptr, %struct.anon, %struct.anon.2, %struct.anon.3, ptr }
%struct.anon = type { i32, i8, i8, i8, ptr, ptr, i32, i32, ptr, ptr, ptr, %union.anon }
%union.anon = type { %struct.anon.0 }
%struct.anon.0 = type { ptr }
%struct.anon.2 = type { ptr, ptr, ptr }
%struct.anon.3 = type { i32, i8, ptr, i32, i32, ptr, ptr, ptr, %union.anon.4 }
%union.anon.4 = type { %struct.anon.5 }
%struct.anon.5 = type { ptr }
%struct._packet_info = type { ptr, ptr, i32, i32, %struct.nstime_t, %struct.nstime_t, %struct.nstime_t, i8, ptr, ptr, ptr, ptr, %struct._address, %struct._address, %struct._address, %struct._address, %struct._address, %struct._address, i32, ptr, i8, [3 x i8], %struct.anon.7, i32, i32, i32, i32, ptr, i8, ptr, ptr, i16, i16, i32, i32, i16, i32, i32, ptr, ptr, ptr, i8, i8, i16, i16, i16, i32, i16, i16, ptr, ptr, ptr, ptr, ptr, i32, i32 }
%struct.nstime_t = type { i64, i32 }
%struct._address = type { i32, i32, ptr, ptr }
%struct.anon.7 = type { i8, [3 x i8] }
%struct._h225_packet_info = type { i32, i32, i32, i32, i32, %struct._e_guid_t, i8, i8, %struct.nstime_t, i8, i8, i8, i32, i16, [129 x i8], i8, [50 x i8] }
%struct._e_guid_t = type { i32, i16, i16, [8 x i8] }
%struct._frame_data = type <{ i32, i32, i32, i32, i32, [4 x i8], i64, ptr, ptr, ptr, i8, i16, [5 x i8], %struct.nstime_t, %struct.nstime_t, i32, i32 }>

@proto_h225 = internal global i32 0, align 4
@ett_h225_H245TransportAddress = internal global i32 0, align 4
@h245_handle = internal global ptr null, align 8
@ipv4_address = internal global i32 0, align 4
@ipv6_address = internal global %struct.e_in6_addr zeroinitializer, align 1
@ipv6_address_zeros = internal global %struct.e_in6_addr zeroinitializer, align 1
@ip_port = internal global i32 0, align 4

; Function Attrs: inlinehint nounwind null_pointer_is_valid sspstrong uwtable
define internal void @set_address(ptr noundef %0, i32 noundef %1, i32 noundef %2, ptr noundef %3) #3 {
  %5 = alloca ptr, align 8
  %6 = alloca i32, align 4
  %7 = alloca i32, align 4
  %8 = alloca ptr, align 8
  store ptr %0, ptr %5, align 8
  store i32 %1, ptr %6, align 4
  store i32 %2, ptr %7, align 4
  store ptr %3, ptr %8, align 8
  %9 = load i32, ptr %7, align 4
  %10 = icmp eq i32 %9, 0
  br i1 %10, label %11, label %14

11:                                               ; preds = %4
  br label %12

12:                                               ; preds = %11
  br label %13

13:                                               ; preds = %12
  br label %19

14:                                               ; preds = %4
  br label %15

15:                                               ; preds = %14
  br label %16

16:                                               ; preds = %15
  br label %17

17:                                               ; preds = %16
  br label %18

18:                                               ; preds = %17
  br label %19

19:                                               ; preds = %18, %13
  %20 = load i32, ptr %6, align 4
  %21 = load ptr, ptr %5, align 8
  %22 = getelementptr inbounds nuw %struct._address, ptr %21, i32 0, i32 0
  store i32 %20, ptr %22, align 8
  %23 = load i32, ptr %7, align 4
  %24 = load ptr, ptr %5, align 8
  %25 = getelementptr inbounds nuw %struct._address, ptr %24, i32 0, i32 1
  store i32 %23, ptr %25, align 4
  %26 = load ptr, ptr %8, align 8
  %27 = load ptr, ptr %5, align 8
  %28 = getelementptr inbounds nuw %struct._address, ptr %27, i32 0, i32 2
  store ptr %26, ptr %28, align 8
  %29 = load ptr, ptr %5, align 8
  %30 = getelementptr inbounds nuw %struct._address, ptr %29, i32 0, i32 3
  store ptr null, ptr %30, align 8
  ret void
}

; Function Attrs: null_pointer_is_valid sspstrong uwtable
define internal i32 @dissect_h225_H245TransportAddress(ptr noundef %0, i32 noundef %1, ptr noundef %2, ptr noundef %3, i32 noundef %4) #0 {
  %6 = alloca i32, align 4
  %7 = alloca ptr, align 8
  %8 = alloca i32, align 4
  %9 = alloca ptr, align 8
  %10 = alloca ptr, align 8
  %11 = alloca i32, align 4
  %12 = alloca ptr, align 8
  %13 = alloca %struct._address, align 8
  %14 = alloca ptr, align 8
  %15 = alloca i32, align 4
  store ptr %0, ptr %7, align 8
  store i32 %1, ptr %8, align 4
  store ptr %2, ptr %9, align 8
  store ptr %3, ptr %10, align 8
  store i32 %4, ptr %11, align 4
  call void @llvm.lifetime.start.p0(i64 8, ptr %12) #11
  store i32 0, ptr @ipv4_address, align 4
  call void @llvm.memcpy.p0.p0.i64(ptr align 1 @ipv6_address, ptr align 1 @ipv6_address_zeros, i64 16, i1 false)
  store i32 0, ptr @ip_port, align 4
  %16 = load ptr, ptr %7, align 8
  %17 = load i32, ptr %8, align 4
  %18 = load ptr, ptr %9, align 8
  %19 = load ptr, ptr %10, align 8
  %20 = load i32, ptr %11, align 4
  %21 = load i32, ptr @ett_h225_H245TransportAddress, align 4
  %22 = call i32 @dissect_per_choice(ptr noundef %16, i32 noundef %17, ptr noundef %18, ptr noundef %19, i32 noundef %20, i32 noundef %21, ptr noundef @H245TransportAddress_choice, ptr noundef null)
  store i32 %22, ptr %8, align 4
  %23 = load ptr, ptr %9, align 8
  %24 = getelementptr inbounds nuw %struct._asn1_ctx_t, ptr %23, i32 0, i32 3
  %25 = load ptr, ptr %24, align 8
  %26 = getelementptr inbounds nuw %struct._packet_info, ptr %25, i32 0, i32 51
  %27 = load ptr, ptr %26, align 8
  %28 = load ptr, ptr %9, align 8
  %29 = getelementptr inbounds nuw %struct._asn1_ctx_t, ptr %28, i32 0, i32 3
  %30 = load ptr, ptr %29, align 8
  %31 = load i32, ptr @proto_h225, align 4
  %32 = call ptr @p_get_proto_data(ptr noundef %27, ptr noundef %30, i32 noundef %31, i32 noundef 0)
  store ptr %32, ptr %12, align 8
  %33 = load ptr, ptr %12, align 8
  %34 = icmp ne ptr %33, null
  br i1 %34, label %35, label %45

35:                                               ; preds = %5
  %36 = load ptr, ptr %12, align 8
  %37 = getelementptr inbounds nuw %struct._h225_packet_info, ptr %36, i32 0, i32 10
  store i8 1, ptr %37, align 1
  %38 = load i32, ptr @ipv4_address, align 4
  %39 = load ptr, ptr %12, align 8
  %40 = getelementptr inbounds nuw %struct._h225_packet_info, ptr %39, i32 0, i32 12
  store i32 %38, ptr %40, align 4
  %41 = load i32, ptr @ip_port, align 4
  %42 = trunc i32 %41 to i16
  %43 = load ptr, ptr %12, align 8
  %44 = getelementptr inbounds nuw %struct._h225_packet_info, ptr %43, i32 0, i32 13
  store i16 %42, ptr %44, align 8
  br label %45

45:                                               ; preds = %35, %5
  %46 = load ptr, ptr %9, align 8
  %47 = getelementptr inbounds nuw %struct._asn1_ctx_t, ptr %46, i32 0, i32 3
  %48 = load ptr, ptr %47, align 8
  %49 = getelementptr inbounds nuw %struct._packet_info, ptr %48, i32 0, i32 8
  %50 = load ptr, ptr %49, align 8
  %51 = getelementptr inbounds nuw %struct._frame_data, ptr %50, i32 0, i32 11
  %52 = load i16, ptr %51, align 1
  %53 = lshr i16 %52, 3
  %54 = and i16 %53, 1
  %55 = zext i16 %54 to i32
  %56 = icmp ne i32 %55, 0
  br i1 %56, label %100, label %57

57:                                               ; preds = %45
  %58 = load ptr, ptr @h245_handle, align 8
  %59 = icmp ne ptr %58, null
  br i1 %59, label %60, label %100

60:                                               ; preds = %57
  %61 = load i32, ptr @ip_port, align 4
  %62 = icmp ne i32 %61, 0
  br i1 %62, label %63, label %100

63:                                               ; preds = %60
  call void @llvm.lifetime.start.p0(i64 24, ptr %13) #11
  call void @llvm.lifetime.start.p0(i64 8, ptr %14) #11
  store ptr null, ptr %14, align 8
  %64 = load i32, ptr @ipv4_address, align 4
  %65 = icmp ne i32 %64, 0
  br i1 %65, label %66, label %67

66:                                               ; preds = %63
  call void @set_address(ptr noundef %13, i32 noundef 2, i32 noundef 4, ptr noundef @ipv4_address)
  br label %74

67:                                               ; preds = %63
  %68 = call i32 @memcmp(ptr noundef @ipv6_address, ptr noundef @ipv6_address_zeros, i64 noundef 16) #13
  %69 = icmp ne i32 %68, 0
  br i1 %69, label %70, label %71

70:                                               ; preds = %67
  call void @set_address(ptr noundef %13, i32 noundef 3, i32 noundef 16, ptr noundef @ipv6_address)
  br label %73

71:                                               ; preds = %67
  %72 = load i32, ptr %8, align 4
  store i32 %72, ptr %6, align 4
  store i32 1, ptr %15, align 4
  br label %97

73:                                               ; preds = %70
  br label %74

74:                                               ; preds = %73, %66
  %75 = load ptr, ptr %9, align 8
  %76 = getelementptr inbounds nuw %struct._asn1_ctx_t, ptr %75, i32 0, i32 3
  %77 = load ptr, ptr %76, align 8
  %78 = getelementptr inbounds nuw %struct._packet_info, ptr %77, i32 0, i32 3
  %79 = load i32, ptr %78, align 4
  %80 = load i32, ptr @ip_port, align 4
  %81 = load i32, ptr @ip_port, align 4
  %82 = call ptr @find_conversation(i32 noundef %79, ptr noundef %13, ptr noundef %13, i32 noundef 2, i32 noundef %80, i32 noundef %81, i32 noundef 196608)
  store ptr %82, ptr %14, align 8
  %83 = load ptr, ptr %14, align 8
  %84 = icmp ne ptr %83, null
  br i1 %84, label %96, label %85

85:                                               ; preds = %74
  %86 = load ptr, ptr %9, align 8
  %87 = getelementptr inbounds nuw %struct._asn1_ctx_t, ptr %86, i32 0, i32 3
  %88 = load ptr, ptr %87, align 8
  %89 = getelementptr inbounds nuw %struct._packet_info, ptr %88, i32 0, i32 3
  %90 = load i32, ptr %89, align 4
  %91 = load i32, ptr @ip_port, align 4
  %92 = load i32, ptr @ip_port, align 4
  %93 = call ptr @conversation_new(i32 noundef %90, ptr noundef %13, ptr noundef %13, i32 noundef 2, i32 noundef %91, i32 noundef %92, i32 noundef 3)
  store ptr %93, ptr %14, align 8
  %94 = load ptr, ptr %14, align 8
  %95 = load ptr, ptr @h245_handle, align 8
  call void @conversation_set_dissector(ptr noundef %94, ptr noundef %95)
  br label %96

96:                                               ; preds = %85, %74
  store i32 0, ptr %15, align 4
  br label %97

97:                                               ; preds = %96, %71
  call void @llvm.lifetime.end.p0(i64 8, ptr %14) #11
  call void @llvm.lifetime.end.p0(i64 24, ptr %13) #11
  %98 = load i32, ptr %15, align 4
  switch i32 %98, label %102 [
    i32 0, label %99
  ]

99:                                               ; preds = %97
  br label %100

100:                                              ; preds = %99, %60, %57, %45
  %101 = load i32, ptr %8, align 4
  store i32 %101, ptr %6, align 4
  store i32 1, ptr %15, align 4
  br label %102

102:                                              ; preds = %100, %97
  call void @llvm.lifetime.end.p0(i64 8, ptr %12) #11
  %103 = load i32, ptr %6, align 4
  ret i32 %103
}