; Function Attrs: null_pointer_is_valid sspstrong uwtable
define internal i32 @dissect_h225_H245TransportAddress(ptr noundef %0, i32 noundef %1, ptr noundef %2, ptr noundef %3, i32 noundef %4) #0 {
  %6 = alloca %struct._address, align 8
  store i32 0, ptr @ipv4_address, align 4
  tail call void @llvm.memcpy.p0.p0.i64(ptr noundef nonnull align 1 dereferenceable(16) @ipv6_address, ptr noundef nonnull align 1 dereferenceable(16) @ipv6_address_zeros, i64 16, i1 false)
  store i32 0, ptr @ip_port, align 4
  %7 = load i32, ptr @ett_h225_H245TransportAddress, align 4
  %8 = tail call i32 @dissect_per_choice(ptr noundef %0, i32 noundef %1, ptr noundef %2, ptr noundef %3, i32 noundef %4, i32 noundef %7, ptr noundef nonnull @H245TransportAddress_choice, ptr noundef null)
  %9 = getelementptr inbounds nuw i8, ptr %2, i64 16
  %10 = load ptr, ptr %9, align 8
  %11 = getelementptr inbounds nuw i8, ptr %10, i64 408
  %12 = load ptr, ptr %11, align 8
  %13 = load i32, ptr @proto_h225, align 4
  %14 = tail call ptr @p_get_proto_data(ptr noundef %12, ptr noundef %10, i32 noundef %13, i32 noundef 0)
  %.not = icmp eq ptr %14, null
  %.pre = load i32, ptr @ip_port, align 4
  br i1 %.not, label %21, label %15

15:                                               ; preds = %5
  %16 = getelementptr inbounds nuw i8, ptr %14, i64 57
  store i8 1, ptr %16, align 1
  %17 = load i32, ptr @ipv4_address, align 4
  %18 = getelementptr inbounds nuw i8, ptr %14, i64 60
  store i32 %17, ptr %18, align 4
  %19 = trunc i32 %.pre to i16
  %20 = getelementptr inbounds nuw i8, ptr %14, i64 64
  store i16 %19, ptr %20, align 8
  br label %21

21:                                               ; preds = %15, %5
  %22 = load ptr, ptr %9, align 8
  %23 = getelementptr inbounds nuw i8, ptr %22, i64 80
  %24 = load ptr, ptr %23, align 8
  %25 = getelementptr inbounds nuw i8, ptr %24, i64 57
  %26 = load i16, ptr %25, align 1
  %27 = and i16 %26, 8
  %28 = icmp eq i16 %27, 0
  %29 = load ptr, ptr @h245_handle, align 8
  %30 = icmp ne ptr %29, null
  %or.cond = select i1 %28, i1 %30, i1 false
  %31 = icmp ne i32 %.pre, 0
  %or.cond3 = select i1 %or.cond, i1 %31, i1 false
  br i1 %or.cond3, label %32, label %49

32:                                               ; preds = %21
  call void @llvm.lifetime.start.p0(i64 24, ptr nonnull %6) #11
  %33 = load i32, ptr @ipv4_address, align 4
  %.not24 = icmp eq i32 %33, 0
  br i1 %.not24, label %34, label %35

34:                                               ; preds = %32
  %bcmp = tail call i32 @bcmp(ptr noundef nonnull dereferenceable(16) @ipv6_address, ptr noundef nonnull dereferenceable(16) @ipv6_address_zeros, i64 16)
  %.not25 = icmp eq i32 %bcmp, 0
  br i1 %.not25, label %.sink.split, label %35

35:                                               ; preds = %34, %32
  %.sink30 = phi i32 [ 2, %32 ], [ 3, %34 ]
  %.sink = phi i32 [ 4, %32 ], [ 16, %34 ]
  %ipv6_address.sink = phi ptr [ @ipv4_address, %32 ], [ @ipv6_address, %34 ]
  store i32 %.sink30, ptr %6, align 8
  %36 = getelementptr inbounds nuw i8, ptr %6, i64 4
  store i32 %.sink, ptr %36, align 4
  %37 = getelementptr inbounds nuw i8, ptr %6, i64 8
  store ptr %ipv6_address.sink, ptr %37, align 8
  %38 = getelementptr inbounds nuw i8, ptr %6, i64 16
  store ptr null, ptr %38, align 8
  %39 = getelementptr inbounds nuw i8, ptr %22, i64 20
  %40 = load i32, ptr %39, align 4
  %41 = call ptr @find_conversation(i32 noundef %40, ptr noundef nonnull %6, ptr noundef nonnull %6, i32 noundef 2, i32 noundef %.pre, i32 noundef %.pre, i32 noundef 196608)
  %.not26 = icmp eq ptr %41, null
  br i1 %.not26, label %42, label %.sink.split

42:                                               ; preds = %35
  %43 = load ptr, ptr %9, align 8
  %44 = getelementptr inbounds nuw i8, ptr %43, i64 20
  %45 = load i32, ptr %44, align 4
  %46 = load i32, ptr @ip_port, align 4
  %47 = call ptr @conversation_new(i32 noundef %45, ptr noundef nonnull %6, ptr noundef nonnull %6, i32 noundef 2, i32 noundef %46, i32 noundef %46, i32 noundef 3)
  %48 = load ptr, ptr @h245_handle, align 8
  call void @conversation_set_dissector(ptr noundef %47, ptr noundef %48)
  br label %.sink.split

.sink.split:                                      ; preds = %34, %35, %42
  call void @llvm.lifetime.end.p0(i64 24, ptr nonnull %6) #11
  br label %49

49:                                               ; preds = %.sink.split, %21
  ret i32 %8
}